; Function Attrs: nounwind uwtable
define internal zeroext i1 @GL_SupportsBlendMode(ptr readnone captures(none) %0, i32 noundef %1) #0 {
GetBlendFunc.exit:
  %2 = tail call i32 @SDL_GetBlendModeSrcColorFactor(i32 noundef %1) #7
  %3 = tail call i32 @SDL_GetBlendModeSrcAlphaFactor(i32 noundef %1) #7
  %4 = tail call i32 @SDL_GetBlendModeColorOperation(i32 noundef %1) #7
  %5 = tail call i32 @SDL_GetBlendModeDstColorFactor(i32 noundef %1) #7
  %6 = tail call i32 @SDL_GetBlendModeDstAlphaFactor(i32 noundef %1) #7
  %7 = tail call i32 @SDL_GetBlendModeAlphaOperation(i32 noundef %1) #7
  %.off = add i32 %2, -1
  %switch = icmp ult i32 %.off, 10
  %.off29 = add i32 %3, -1
  %switch30 = icmp ult i32 %.off29, 10
  %or.cond = select i1 %switch, i1 %switch30, i1 false
  %.off31 = add i32 %4, -1
  %switch32 = icmp ult i32 %.off31, 5
  %or.cond33 = select i1 %or.cond, i1 %switch32, i1 false
  %.off34 = add i32 %5, -1
  %switch35 = icmp ult i32 %.off34, 10
  %or.cond36 = select i1 %or.cond33, i1 %switch35, i1 false
  %.off37 = add i32 %6, -1
  %switch38 = icmp ult i32 %.off37, 10
  %or.cond39 = select i1 %or.cond36, i1 %switch38, i1 false
  %.off40 = add i32 %7, -1
  %switch41 = icmp ult i32 %.off40, 5
  %or.cond42 = select i1 %or.cond39, i1 %switch41, i1 false
  %.not = icmp eq i32 %4, %7
  %spec.select = select i1 %or.cond42, i1 %.not, i1 false
  ret i1 %spec.select
}